target datalayout = "e-m:e-p270:32:32-p271:32:32-p272:64:64-i64:64-i128:128-f80:128-n8:16:32:64-S128"
target triple = "x86_64-pc-linux-gnu"

@_ZN10duckdb_re23DFAD1Ev = hidden unnamed_addr alias void (ptr), ptr @_ZN10duckdb_re23DFAD2Ev

; Function Attrs: mustprogress nounwind uwtable
define hidden void @_ZN10duckdb_re24Prog9DeleteDFAEPNS_3DFAE(ptr noundef nonnull align 8 dereferenceable(432) %0, ptr noundef %1) #0 align 2 {
  %3 = alloca ptr, align 8
  %4 = alloca ptr, align 8
  store ptr %0, ptr %3, align 8, !tbaa !12
  store ptr %1, ptr %4, align 8, !tbaa !9
  %5 = load ptr, ptr %4, align 8, !tbaa !9
  %6 = icmp eq ptr %5, null
  br i1 %6, label %8, label %7

7:                                                ; preds = %2
  call void @_ZN10duckdb_re23DFAD1Ev(ptr noundef nonnull align 8 dereferenceable(296) %5) #17
  call void @_ZdlPv(ptr noundef %5) #19
  br label %8

8:                                                ; preds = %7, %2
  ret void
}