; Function Attrs: mustprogress nounwind uwtable
define hidden void @_ZN10duckdb_re24Prog9DeleteDFAEPNS_3DFAE(ptr noundef nonnull readnone align 8 captures(none) dereferenceable(432) %0, ptr noundef %1) local_unnamed_addr #6 align 2 {
  %3 = icmp eq ptr %1, null
  br i1 %3, label %5, label %4

4:                                                ; preds = %2
  tail call void @_ZN10duckdb_re23DFAD2Ev(ptr noundef nonnull align 8 dereferenceable(296) %1) #20
  tail call void @_ZdlPv(ptr noundef nonnull %1) #23
  br label %5

5:                                                ; preds = %4, %2
  ret void
}